target datalayout = "e-m:e-p270:32:32-p271:32:32-p272:64:64-i64:64-i128:128-f80:128-n8:16:32:64-S128"
target triple = "x86_64-pc-linux-gnu"

%struct._longobject = type { %struct.PyVarObject, [1 x i32] }
%struct.PyVarObject = type { %struct._object, i64 }
%struct._object = type { i64, ptr }
%struct._typeobject = type { %struct.PyVarObject, ptr, i64, i64, ptr, i64, ptr, ptr, ptr, ptr, ptr, ptr, ptr, ptr, ptr, ptr, ptr, ptr, ptr, i64, ptr, ptr, ptr, ptr, i64, ptr, ptr, ptr, ptr, ptr, ptr, ptr, ptr, ptr, i64, ptr, ptr, ptr, ptr, ptr, ptr, ptr, ptr, ptr, ptr, ptr, i32, ptr, ptr }

@PyFloat_Type = external global %struct._typeobject, align 8
@PyLong_Type = external global %struct._typeobject, align 8

; Function Attrs: inlinehint mustprogress nounwind uwtable
define linkonce_odr noundef i64 @_ZSt3absl(i64 noundef %0) #9 comdat {
  %2 = alloca i64, align 8
  store i64 %0, ptr %2, align 8
  %3 = load i64, ptr %2, align 8
  %4 = call i64 @llvm.abs.i64(i64 %3, i1 true)
  ret i64 %4
}

; Function Attrs: inlinehint mustprogress uwtable
define internal void @_ZL10_Py_DECREFP7_object(ptr noundef %0) #13 {
  %2 = alloca ptr, align 8
  store ptr %0, ptr %2, align 8
  %3 = load ptr, ptr %2, align 8
  %4 = getelementptr inbounds nuw %struct._object, ptr %3, i32 0, i32 0
  %5 = load i64, ptr %4, align 8
  %6 = add nsw i64 %5, -1
  store i64 %6, ptr %4, align 8
  %7 = icmp ne i64 %6, 0
  br i1 %7, label %8, label %9

8:                                                ; preds = %1
  br label %11

9:                                                ; preds = %1
  %10 = load ptr, ptr %2, align 8
  call void @_Py_Dealloc(ptr noundef %10)
  br label %11

11:                                               ; preds = %9, %8
  ret void
}

; Function Attrs: alwaysinline mustprogress nounwind uwtable
define linkonce_odr hidden noundef zeroext i1 @_ZN8nanobind6detail8load_intIaLb0EEEbP7_objectjPT_(ptr noundef %0, i32 noundef %1, ptr noundef %2) #18 comdat personality ptr @__gxx_personality_v0 {
  %4 = alloca i1, align 1
  %5 = alloca ptr, align 8
  %6 = alloca i32, align 4
  %7 = alloca ptr, align 8
  %8 = alloca ptr, align 8
  %9 = alloca i64, align 8
  %10 = alloca i8, align 1
  %11 = alloca i32, align 4
  %12 = alloca i64, align 8
  %13 = alloca i8, align 1
  store ptr %0, ptr %5, align 8
  store i32 %1, ptr %6, align 4
  store ptr %2, ptr %7, align 8
  %14 = load ptr, ptr %5, align 8
  %15 = call noundef i32 @_ZL11_Py_IS_TYPEPK7_objectPK11_typeobject(ptr noundef %14, ptr noundef @PyLong_Type)
  %16 = icmp ne i32 %15, 0
  %17 = zext i1 %16 to i64
  %18 = call i64 @llvm.expect.i64(i64 %17, i64 1)
  %19 = icmp ne i64 %18, 0
  br i1 %19, label %20, label %71

20:                                               ; preds = %3
  call void @llvm.lifetime.start.p0(i64 8, ptr %8) #20
  %21 = load ptr, ptr %5, align 8
  store ptr %21, ptr %8, align 8
  %22 = load ptr, ptr %8, align 8
  %23 = invoke noundef zeroext i1 @_ZN8nanobind6detail25PyUnstable_Long_IsCompactEPK11_longobject(ptr noundef %22)
          to label %24 unwind label %74

24:                                               ; preds = %20
  %25 = zext i1 %23 to i64
  %26 = call i64 @llvm.expect.i64(i64 %25, i64 1)
  %27 = icmp ne i64 %26, 0
  br i1 %27, label %28, label %45

28:                                               ; preds = %24
  call void @llvm.lifetime.start.p0(i64 8, ptr %9) #20
  %29 = load ptr, ptr %8, align 8
  %30 = call noundef i64 @_ZN8nanobind6detail28PyUnstable_Long_CompactValueEPK11_longobject(ptr noundef %29)
  store i64 %30, ptr %9, align 8
  call void @llvm.lifetime.start.p0(i64 1, ptr %10) #20
  %31 = load i64, ptr %9, align 8
  %32 = trunc i64 %31 to i8
  store i8 %32, ptr %10, align 1
  %33 = load i64, ptr %9, align 8
  %34 = load i8, ptr %10, align 1
  %35 = sext i8 %34 to i64
  %36 = icmp ne i64 %33, %35
  %37 = zext i1 %36 to i64
  %38 = call i64 @llvm.expect.i64(i64 %37, i64 0)
  %39 = icmp ne i64 %38, 0
  br i1 %39, label %40, label %41

40:                                               ; preds = %28
  store i1 false, ptr %4, align 1
  store i32 1, ptr %11, align 4
  br label %44

41:                                               ; preds = %28
  %42 = load i8, ptr %10, align 1
  %43 = load ptr, ptr %7, align 8
  store i8 %42, ptr %43, align 1
  store i1 true, ptr %4, align 1
  store i32 1, ptr %11, align 4
  br label %44

44:                                               ; preds = %41, %40
  call void @llvm.lifetime.end.p0(i64 1, ptr %10) #20
  call void @llvm.lifetime.end.p0(i64 8, ptr %9) #20
  br label %70

45:                                               ; preds = %24
  call void @llvm.lifetime.start.p0(i64 8, ptr %12) #20
  %46 = load ptr, ptr %5, align 8
  %47 = invoke i64 @PyLong_AsLong(ptr noundef %46)
          to label %48 unwind label %74

48:                                               ; preds = %45
  store i64 %47, ptr %12, align 8
  %49 = load i64, ptr %12, align 8
  %50 = icmp eq i64 %49, -1
  br i1 %50, label %51, label %57

51:                                               ; preds = %48
  %52 = invoke ptr @PyErr_Occurred()
          to label %53 unwind label %74

53:                                               ; preds = %51
  %54 = icmp ne ptr %52, null
  br i1 %54, label %55, label %57

55:                                               ; preds = %53
  invoke void @PyErr_Clear()
          to label %56 unwind label %74

56:                                               ; preds = %55
  store i1 false, ptr %4, align 1
  store i32 1, ptr %11, align 4
  br label %69

57:                                               ; preds = %53, %48
  call void @llvm.lifetime.start.p0(i64 1, ptr %13) #20
  %58 = load i64, ptr %12, align 8
  %59 = trunc i64 %58 to i8
  store i8 %59, ptr %13, align 1
  %60 = load i64, ptr %12, align 8
  %61 = load i8, ptr %13, align 1
  %62 = sext i8 %61 to i64
  %63 = icmp ne i64 %60, %62
  br i1 %63, label %64, label %65

64:                                               ; preds = %57
  store i1 false, ptr %4, align 1
  store i32 1, ptr %11, align 4
  br label %68

65:                                               ; preds = %57
  %66 = load i8, ptr %13, align 1
  %67 = load ptr, ptr %7, align 8
  store i8 %66, ptr %67, align 1
  store i1 true, ptr %4, align 1
  store i32 1, ptr %11, align 4
  br label %68

68:                                               ; preds = %65, %64
  call void @llvm.lifetime.end.p0(i64 1, ptr %13) #20
  br label %69

69:                                               ; preds = %68, %56
  call void @llvm.lifetime.end.p0(i64 8, ptr %12) #20
  br label %70

70:                                               ; preds = %69, %44
  call void @llvm.lifetime.end.p0(i64 8, ptr %8) #20
  br label %72

71:                                               ; preds = %3
  store i1 false, ptr %4, align 1
  br label %72

72:                                               ; preds = %71, %70
  %73 = load i1, ptr %4, align 1
  ret i1 %73

74:                                               ; preds = %55, %51, %45, %20
  %75 = landingpad { ptr, i32 }
          catch ptr null
  %76 = extractvalue { ptr, i32 } %75, 0
  call void @__clang_call_terminate(ptr %76) #22
  unreachable
}

; Function Attrs: inlinehint mustprogress uwtable
define internal noundef i32 @_ZL19_PyObject_TypeCheckP7_objectP11_typeobject(ptr noundef %0, ptr noundef %1) #13 {
  %3 = alloca ptr, align 8
  %4 = alloca ptr, align 8
  store ptr %0, ptr %3, align 8
  store ptr %1, ptr %4, align 8
  %5 = load ptr, ptr %3, align 8
  %6 = load ptr, ptr %4, align 8
  %7 = call noundef i32 @_ZL11_Py_IS_TYPEPK7_objectPK11_typeobject(ptr noundef %5, ptr noundef %6)
  %8 = icmp ne i32 %7, 0
  br i1 %8, label %16, label %9

9:                                                ; preds = %2
  %10 = load ptr, ptr %3, align 8
  %11 = getelementptr inbounds nuw %struct._object, ptr %10, i32 0, i32 1
  %12 = load ptr, ptr %11, align 8
  %13 = load ptr, ptr %4, align 8
  %14 = call i32 @PyType_IsSubtype(ptr noundef %12, ptr noundef %13)
  %15 = icmp ne i32 %14, 0
  br label %16

16:                                               ; preds = %9, %2
  %17 = phi i1 [ true, %2 ], [ %15, %9 ]
  %18 = zext i1 %17 to i32
  ret i32 %18
}

; Function Attrs: alwaysinline mustprogress nounwind uwtable
define linkonce_odr hidden noundef i64 @_ZN8nanobind6detail28PyUnstable_Long_CompactValueEPK11_longobject(ptr noundef %0) #18 comdat {
  %2 = alloca ptr, align 8
  store ptr %0, ptr %2, align 8
  %3 = load ptr, ptr %2, align 8
  %4 = getelementptr inbounds nuw %struct.PyVarObject, ptr %3, i32 0, i32 1
  %5 = load i64, ptr %4, align 8
  %6 = load ptr, ptr %2, align 8
  %7 = getelementptr inbounds nuw %struct._longobject, ptr %6, i32 0, i32 1
  %8 = getelementptr inbounds [1 x i32], ptr %7, i64 0, i64 0
  %9 = load i32, ptr %8, align 8
  %10 = zext i32 %9 to i64
  %11 = mul nsw i64 %5, %10
  ret i64 %11
}

; Function Attrs: alwaysinline mustprogress uwtable
define linkonce_odr hidden noundef zeroext i1 @_ZN8nanobind6detail25PyUnstable_Long_IsCompactEPK11_longobject(ptr noundef %0) #17 comdat {
  %2 = alloca ptr, align 8
  store ptr %0, ptr %2, align 8
  %3 = load ptr, ptr %2, align 8
  %4 = getelementptr inbounds nuw %struct.PyVarObject, ptr %3, i32 0, i32 1
  %5 = load i64, ptr %4, align 8
  %6 = call noundef i64 @_ZSt3absl(i64 noundef %5)
  %7 = icmp sle i64 %6, 1
  ret i1 %7
}

; Function Attrs: inlinehint mustprogress nounwind uwtable
define internal noundef i32 @_ZL11_Py_IS_TYPEPK7_objectPK11_typeobject(ptr noundef %0, ptr noundef %1) #9 {
  %3 = alloca ptr, align 8
  %4 = alloca ptr, align 8
  store ptr %0, ptr %3, align 8
  store ptr %1, ptr %4, align 8
  %5 = load ptr, ptr %3, align 8
  %6 = getelementptr inbounds nuw %struct._object, ptr %5, i32 0, i32 1
  %7 = load ptr, ptr %6, align 8
  %8 = load ptr, ptr %4, align 8
  %9 = icmp eq ptr %7, %8
  %10 = zext i1 %9 to i32
  ret i32 %10
}

; Function Attrs: alwaysinline mustprogress nounwind uwtable
define linkonce_odr hidden noundef zeroext i1 @_ZN8nanobind6detail8load_intIaLb1EEEbP7_objectjPT_(ptr noundef %0, i32 noundef %1, ptr noundef %2) #18 comdat personality ptr @__gxx_personality_v0 {
  %4 = alloca i1, align 1
  %5 = alloca ptr, align 8
  %6 = alloca i32, align 4
  %7 = alloca ptr, align 8
  %8 = alloca ptr, align 8
  %9 = alloca i64, align 8
  %10 = alloca i8, align 1
  %11 = alloca i32, align 4
  %12 = alloca i64, align 8
  %13 = alloca i8, align 1
  %14 = alloca ptr, align 8
  %15 = alloca i8, align 1
  store ptr %0, ptr %5, align 8
  store i32 %1, ptr %6, align 4
  store ptr %2, ptr %7, align 8
  %16 = load ptr, ptr %5, align 8
  %17 = call noundef i32 @_ZL11_Py_IS_TYPEPK7_objectPK11_typeobject(ptr noundef %16, ptr noundef @PyLong_Type)
  %18 = icmp ne i32 %17, 0
  %19 = zext i1 %18 to i64
  %20 = call i64 @llvm.expect.i64(i64 %19, i64 1)
  %21 = icmp ne i64 %20, 0
  br i1 %21, label %22, label %73

22:                                               ; preds = %3
  call void @llvm.lifetime.start.p0(i64 8, ptr %8) #20
  %23 = load ptr, ptr %5, align 8
  store ptr %23, ptr %8, align 8
  %24 = load ptr, ptr %8, align 8
  %25 = invoke noundef zeroext i1 @_ZN8nanobind6detail25PyUnstable_Long_IsCompactEPK11_longobject(ptr noundef %24)
          to label %26 unwind label %106

26:                                               ; preds = %22
  %27 = zext i1 %25 to i64
  %28 = call i64 @llvm.expect.i64(i64 %27, i64 1)
  %29 = icmp ne i64 %28, 0
  br i1 %29, label %30, label %47

30:                                               ; preds = %26
  call void @llvm.lifetime.start.p0(i64 8, ptr %9) #20
  %31 = load ptr, ptr %8, align 8
  %32 = call noundef i64 @_ZN8nanobind6detail28PyUnstable_Long_CompactValueEPK11_longobject(ptr noundef %31)
  store i64 %32, ptr %9, align 8
  call void @llvm.lifetime.start.p0(i64 1, ptr %10) #20
  %33 = load i64, ptr %9, align 8
  %34 = trunc i64 %33 to i8
  store i8 %34, ptr %10, align 1
  %35 = load i64, ptr %9, align 8
  %36 = load i8, ptr %10, align 1
  %37 = sext i8 %36 to i64
  %38 = icmp ne i64 %35, %37
  %39 = zext i1 %38 to i64
  %40 = call i64 @llvm.expect.i64(i64 %39, i64 0)
  %41 = icmp ne i64 %40, 0
  br i1 %41, label %42, label %43

42:                                               ; preds = %30
  store i1 false, ptr %4, align 1
  store i32 1, ptr %11, align 4
  br label %46

43:                                               ; preds = %30
  %44 = load i8, ptr %10, align 1
  %45 = load ptr, ptr %7, align 8
  store i8 %44, ptr %45, align 1
  store i1 true, ptr %4, align 1
  store i32 1, ptr %11, align 4
  br label %46

46:                                               ; preds = %43, %42
  call void @llvm.lifetime.end.p0(i64 1, ptr %10) #20
  call void @llvm.lifetime.end.p0(i64 8, ptr %9) #20
  br label %72

47:                                               ; preds = %26
  call void @llvm.lifetime.start.p0(i64 8, ptr %12) #20
  %48 = load ptr, ptr %5, align 8
  %49 = invoke i64 @PyLong_AsLong(ptr noundef %48)
          to label %50 unwind label %106

50:                                               ; preds = %47
  store i64 %49, ptr %12, align 8
  %51 = load i64, ptr %12, align 8
  %52 = icmp eq i64 %51, -1
  br i1 %52, label %53, label %59

53:                                               ; preds = %50
  %54 = invoke ptr @PyErr_Occurred()
          to label %55 unwind label %106

55:                                               ; preds = %53
  %56 = icmp ne ptr %54, null
  br i1 %56, label %57, label %59

57:                                               ; preds = %55
  invoke void @PyErr_Clear()
          to label %58 unwind label %106

58:                                               ; preds = %57
  store i1 false, ptr %4, align 1
  store i32 1, ptr %11, align 4
  br label %71

59:                                               ; preds = %55, %50
  call void @llvm.lifetime.start.p0(i64 1, ptr %13) #20
  %60 = load i64, ptr %12, align 8
  %61 = trunc i64 %60 to i8
  store i8 %61, ptr %13, align 1
  %62 = load i64, ptr %12, align 8
  %63 = load i8, ptr %13, align 1
  %64 = sext i8 %63 to i64
  %65 = icmp ne i64 %62, %64
  br i1 %65, label %66, label %67

66:                                               ; preds = %59
  store i1 false, ptr %4, align 1
  store i32 1, ptr %11, align 4
  br label %70

67:                                               ; preds = %59
  %68 = load i8, ptr %13, align 1
  %69 = load ptr, ptr %7, align 8
  store i8 %68, ptr %69, align 1
  store i1 true, ptr %4, align 1
  store i32 1, ptr %11, align 4
  br label %70

70:                                               ; preds = %67, %66
  call void @llvm.lifetime.end.p0(i64 1, ptr %13) #20
  br label %71

71:                                               ; preds = %70, %58
  call void @llvm.lifetime.end.p0(i64 8, ptr %12) #20
  br label %72

72:                                               ; preds = %71, %46
  call void @llvm.lifetime.end.p0(i64 8, ptr %8) #20
  br label %104

73:                                               ; preds = %3
  %74 = load i32, ptr %6, align 4
  %75 = and i32 %74, 1
  %76 = icmp ne i32 %75, 0
  br i1 %76, label %77, label %103

77:                                               ; preds = %73
  %78 = load ptr, ptr %5, align 8
  %79 = invoke noundef i32 @_ZL19_PyObject_TypeCheckP7_objectP11_typeobject(ptr noundef %78, ptr noundef @PyFloat_Type)
          to label %80 unwind label %106

80:                                               ; preds = %77
  %81 = icmp ne i32 %79, 0
  br i1 %81, label %103, label %82

82:                                               ; preds = %80
  call void @llvm.lifetime.start.p0(i64 8, ptr %14) #20
  %83 = load ptr, ptr %5, align 8
  %84 = invoke ptr @PyNumber_Long(ptr noundef %83)
          to label %85 unwind label %106

85:                                               ; preds = %82
  store ptr %84, ptr %14, align 8
  %86 = load ptr, ptr %14, align 8
  %87 = icmp ne ptr %86, null
  br i1 %87, label %88, label %97

88:                                               ; preds = %85
  call void @llvm.lifetime.start.p0(i64 1, ptr %15) #20
  %89 = load ptr, ptr %14, align 8
  %90 = load ptr, ptr %7, align 8
  %91 = call noundef zeroext i1 @_ZN8nanobind6detail8load_intIaLb0EEEbP7_objectjPT_(ptr noundef %89, i32 noundef 0, ptr noundef %90) #20
  %92 = zext i1 %91 to i8
  store i8 %92, ptr %15, align 1
  %93 = load ptr, ptr %14, align 8
  invoke void @_ZL10_Py_DECREFP7_object(ptr noundef %93)
          to label %94 unwind label %106

94:                                               ; preds = %88
  %95 = load i8, ptr %15, align 1, !range !6, !noundef !7
  %96 = trunc i8 %95 to i1
  store i1 %96, ptr %4, align 1
  store i32 1, ptr %11, align 4
  call void @llvm.lifetime.end.p0(i64 1, ptr %15) #20
  br label %100

97:                                               ; preds = %85
  invoke void @PyErr_Clear()
          to label %98 unwind label %106

98:                                               ; preds = %97
  br label %99

99:                                               ; preds = %98
  store i32 0, ptr %11, align 4
  br label %100

100:                                              ; preds = %99, %94
  call void @llvm.lifetime.end.p0(i64 8, ptr %14) #20
  %101 = load i32, ptr %11, align 4
  switch i32 %101, label %109 [
    i32 0, label %102
    i32 1, label %104
  ]

102:                                              ; preds = %100
  br label %103

103:                                              ; preds = %102, %80, %73
  store i1 false, ptr %4, align 1
  br label %104

104:                                              ; preds = %103, %100, %72
  %105 = load i1, ptr %4, align 1
  ret i1 %105

106:                                              ; preds = %97, %88, %82, %77, %57, %53, %47, %22
  %107 = landingpad { ptr, i32 }
          catch ptr null
  %108 = extractvalue { ptr, i32 } %107, 0
  call void @__clang_call_terminate(ptr %108) #22
  unreachable

109:                                              ; preds = %100
  unreachable
}

; Function Attrs: mustprogress nounwind uwtable
define noundef zeroext i1 @_ZN8nanobind6detail7load_i8EP7_objecthPa(ptr noundef %0, i8 noundef zeroext %1, ptr noundef %2) #4 {
  %4 = alloca ptr, align 8
  %5 = alloca i8, align 1
  %6 = alloca ptr, align 8
  store ptr %0, ptr %4, align 8
  store i8 %1, ptr %5, align 1
  store ptr %2, ptr %6, align 8
  %7 = load ptr, ptr %4, align 8
  %8 = load i8, ptr %5, align 1
  %9 = zext i8 %8 to i32
  %10 = load ptr, ptr %6, align 8
  %11 = call noundef zeroext i1 @_ZN8nanobind6detail8load_intIaLb1EEEbP7_objectjPT_(ptr noundef %7, i32 noundef %9, ptr noundef %10) #20
  ret i1 %11
}